; Function Attrs: nounwind uwtable
define ptr @fdt_getprop(ptr noundef %0, i32 noundef %1, ptr noundef readonly captures(none) %2, ptr noundef captures(address_is_null) %3) local_unnamed_addr #0 {
  %5 = alloca i32, align 4
  %6 = tail call i64 @strlen(ptr noundef nonnull dereferenceable(1) %2) #10
  %7 = trunc i64 %6 to i32
  call void @llvm.lifetime.start.p0(i64 4, ptr nonnull %5) #9
  %8 = call fastcc ptr @fdt_get_property_namelen_(ptr noundef %0, i32 noundef %1, ptr noundef nonnull readonly %2, i32 noundef %7, ptr noundef %3, ptr noundef nonnull %5)
  %.not.i = icmp eq ptr %8, null
  br i1 %.not.i, label %fdt_getprop_namelen.exit, label %9

9:                                                ; preds = %4
  %10 = getelementptr inbounds nuw i8, ptr %0, i64 20
  %11 = load i8, ptr %10, align 1, !tbaa !3
  %12 = zext i8 %11 to i32
  %13 = shl nuw i32 %12, 24
  %14 = getelementptr inbounds nuw i8, ptr %0, i64 21
  %15 = load i8, ptr %14, align 1, !tbaa !3
  %16 = zext i8 %15 to i32
  %17 = shl nuw nsw i32 %16, 16
  %18 = or disjoint i32 %17, %13
  %19 = getelementptr inbounds nuw i8, ptr %0, i64 22
  %20 = load i8, ptr %19, align 1, !tbaa !3
  %21 = zext i8 %20 to i32
  %22 = shl nuw nsw i32 %21, 8
  %23 = or disjoint i32 %18, %22
  %24 = getelementptr inbounds nuw i8, ptr %0, i64 23
  %25 = load i8, ptr %24, align 1, !tbaa !3
  %26 = zext i8 %25 to i32
  %27 = or disjoint i32 %23, %26
  %28 = icmp ult i32 %27, 16
  br i1 %28, label %29, label %54

29:                                               ; preds = %9
  %30 = load i32, ptr %5, align 4, !tbaa !6
  %31 = and i32 %30, 7
  %.not11.i = icmp eq i32 %31, 4
  br i1 %.not11.i, label %54, label %32

32:                                               ; preds = %29
  %33 = getelementptr inbounds nuw i8, ptr %8, i64 4
  %34 = load i8, ptr %33, align 1, !tbaa !3
  %35 = zext i8 %34 to i32
  %36 = shl nuw i32 %35, 24
  %37 = getelementptr inbounds nuw i8, ptr %8, i64 5
  %38 = load i8, ptr %37, align 1, !tbaa !3
  %39 = zext i8 %38 to i32
  %40 = shl nuw nsw i32 %39, 16
  %41 = or disjoint i32 %40, %36
  %42 = getelementptr inbounds nuw i8, ptr %8, i64 6
  %43 = load i8, ptr %42, align 1, !tbaa !3
  %44 = zext i8 %43 to i32
  %45 = shl nuw nsw i32 %44, 8
  %46 = or disjoint i32 %41, %45
  %47 = getelementptr inbounds nuw i8, ptr %8, i64 7
  %48 = load i8, ptr %47, align 1, !tbaa !3
  %49 = zext i8 %48 to i32
  %50 = or disjoint i32 %46, %49
  %51 = icmp ugt i32 %50, 7
  br i1 %51, label %52, label %54

52:                                               ; preds = %32
  %53 = getelementptr inbounds nuw i8, ptr %8, i64 16
  br label %fdt_getprop_namelen.exit

54:                                               ; preds = %32, %29, %9
  %55 = getelementptr inbounds nuw i8, ptr %8, i64 12
  br label %fdt_getprop_namelen.exit

fdt_getprop_namelen.exit:                         ; preds = %4, %52, %54
  %.0.i = phi ptr [ %53, %52 ], [ %55, %54 ], [ null, %4 ]
  call void @llvm.lifetime.end.p0(i64 4, ptr nonnull %5) #9
  ret ptr %.0.i
}